; ModuleID = 'bench/abseil-cpp/original/log_severity.ll'
source_filename = "bench/abseil-cpp/original/log_severity.ll"
target datalayout = "e-m:e-p270:32:32-p271:32:32-p272:64:64-i64:64-i128:128-f80:128-n8:16:32:64-S128"
target triple = "x86_64-pc-linux-gnu"

@.str = private unnamed_addr constant [19 x i8] c"absl::LogSeverity(\00", align 1
@.str.1 = private unnamed_addr constant [2 x i8] c")\00", align 1
@.str.2 = private unnamed_addr constant [3 x i8] c">=\00", align 1
@.str.3 = private unnamed_addr constant [9 x i8] c"INFINITY\00", align 1
@.str.4 = private unnamed_addr constant [3 x i8] c"<=\00", align 1
@.str.5 = private unnamed_addr constant [18 x i8] c"NEGATIVE_INFINITY\00", align 1
@.str.6 = private unnamed_addr constant [5 x i8] c"INFO\00", align 1
@.str.7 = private unnamed_addr constant [8 x i8] c"WARNING\00", align 1
@.str.8 = private unnamed_addr constant [6 x i8] c"ERROR\00", align 1
@.str.9 = private unnamed_addr constant [6 x i8] c"FATAL\00", align 1
@switch.table._ZN4absllsERSoNS_17LogSeverityAtMostE = private unnamed_addr constant [4 x ptr] [ptr @.str.6, ptr @.str.7, ptr @.str.8, ptr @.str.9], align 8

; Function Attrs: mustprogress uwtable
define dso_local noundef nonnull align 8 dereferenceable(8) ptr @_ZN4absllsERSoNS_11LogSeverityE(ptr noundef nonnull align 8 dereferenceable(8) %0, i32 noundef %1) local_unnamed_addr #0 {
  %3 = icmp ult i32 %1, 4
  br i1 %3, label %switch.lookup, label %7

switch.lookup:                                    ; preds = %2
  %4 = zext nneg i32 %1 to i64
  %switch.gep = getelementptr inbounds nuw [4 x ptr], ptr @switch.table._ZN4absllsERSoNS_17LogSeverityAtMostE, i64 0, i64 %4
  %switch.load = load ptr, ptr %switch.gep, align 8
  %5 = tail call noundef i64 @strlen(ptr noundef nonnull dereferenceable(1) %switch.load) #3
  %6 = tail call noundef nonnull align 8 dereferenceable(8) ptr @_ZSt16__ostream_insertIcSt11char_traitsIcEERSt13basic_ostreamIT_T0_ES6_PKS3_l(ptr noundef nonnull align 8 dereferenceable(8) %0, ptr noundef nonnull %switch.load, i64 noundef %5)
  br label %11

7:                                                ; preds = %2
  %8 = tail call noundef nonnull align 8 dereferenceable(8) ptr @_ZSt16__ostream_insertIcSt11char_traitsIcEERSt13basic_ostreamIT_T0_ES6_PKS3_l(ptr noundef nonnull align 8 dereferenceable(8) %0, ptr noundef nonnull @.str, i64 noundef 18)
  %9 = tail call noundef nonnull align 8 dereferenceable(8) ptr @_ZNSolsEi(ptr noundef nonnull align 8 dereferenceable(8) %0, i32 noundef %1)
  %10 = tail call noundef nonnull align 8 dereferenceable(8) ptr @_ZSt16__ostream_insertIcSt11char_traitsIcEERSt13basic_ostreamIT_T0_ES6_PKS3_l(ptr noundef nonnull align 8 dereferenceable(8) %9, ptr noundef nonnull @.str.1, i64 noundef 1)
  br label %11

11:                                               ; preds = %7, %switch.lookup
  %.0 = phi ptr [ %0, %switch.lookup ], [ %9, %7 ]
  ret ptr %.0
}

declare noundef nonnull align 8 dereferenceable(8) ptr @_ZNSolsEi(ptr noundef nonnull align 8 dereferenceable(8), i32 noundef) local_unnamed_addr #1

; Function Attrs: mustprogress uwtable
define dso_local noundef nonnull align 8 dereferenceable(8) ptr @_ZN4absllsERSoNS_18LogSeverityAtLeastE(ptr noundef nonnull returned align 8 dereferenceable(8) %0, i32 noundef %1) local_unnamed_addr #0 {
  switch i32 %1, label %9 [
    i32 0, label %switch.lookup
    i32 1, label %switch.lookup
    i32 2, label %switch.lookup
    i32 3, label %switch.lookup
    i32 1000, label %7
  ]

switch.lookup:                                    ; preds = %2, %2, %2, %2
  %3 = tail call noundef nonnull align 8 dereferenceable(8) ptr @_ZSt16__ostream_insertIcSt11char_traitsIcEERSt13basic_ostreamIT_T0_ES6_PKS3_l(ptr noundef nonnull align 8 dereferenceable(8) %0, ptr noundef nonnull @.str.2, i64 noundef 2)
  %4 = sext i32 %1 to i64
  %switch.gep = getelementptr inbounds [4 x ptr], ptr @switch.table._ZN4absllsERSoNS_17LogSeverityAtMostE, i64 0, i64 %4
  %switch.load = load ptr, ptr %switch.gep, align 8
  %5 = tail call noundef i64 @strlen(ptr noundef nonnull dereferenceable(1) %switch.load) #3
  %6 = tail call noundef nonnull align 8 dereferenceable(8) ptr @_ZSt16__ostream_insertIcSt11char_traitsIcEERSt13basic_ostreamIT_T0_ES6_PKS3_l(ptr noundef nonnull align 8 dereferenceable(8) %0, ptr noundef nonnull %switch.load, i64 noundef %5)
  br label %9

7:                                                ; preds = %2
  %8 = tail call noundef nonnull align 8 dereferenceable(8) ptr @_ZSt16__ostream_insertIcSt11char_traitsIcEERSt13basic_ostreamIT_T0_ES6_PKS3_l(ptr noundef nonnull align 8 dereferenceable(8) %0, ptr noundef nonnull @.str.3, i64 noundef 8)
  br label %9

9:                                                ; preds = %2, %7, %switch.lookup
  ret ptr %0
}

; Function Attrs: mustprogress uwtable
define dso_local noundef nonnull align 8 dereferenceable(8) ptr @_ZN4absllsERSoNS_17LogSeverityAtMostE(ptr noundef nonnull returned align 8 dereferenceable(8) %0, i32 noundef %1) local_unnamed_addr #0 {
  switch i32 %1, label %9 [
    i32 0, label %switch.lookup
    i32 1, label %switch.lookup
    i32 2, label %switch.lookup
    i32 3, label %switch.lookup
    i32 -1000, label %7
  ]

switch.lookup:                                    ; preds = %2, %2, %2, %2
  %3 = tail call noundef nonnull align 8 dereferenceable(8) ptr @_ZSt16__ostream_insertIcSt11char_traitsIcEERSt13basic_ostreamIT_T0_ES6_PKS3_l(ptr noundef nonnull align 8 dereferenceable(8) %0, ptr noundef nonnull @.str.4, i64 noundef 2)
  %4 = sext i32 %1 to i64
  %switch.gep = getelementptr inbounds [4 x ptr], ptr @switch.table._ZN4absllsERSoNS_17LogSeverityAtMostE, i64 0, i64 %4
  %switch.load = load ptr, ptr %switch.gep, align 8
  %5 = tail call noundef i64 @strlen(ptr noundef nonnull dereferenceable(1) %switch.load) #3
  %6 = tail call noundef nonnull align 8 dereferenceable(8) ptr @_ZSt16__ostream_insertIcSt11char_traitsIcEERSt13basic_ostreamIT_T0_ES6_PKS3_l(ptr noundef nonnull align 8 dereferenceable(8) %0, ptr noundef nonnull %switch.load, i64 noundef %5)
  br label %9

7:                                                ; preds = %2
  %8 = tail call noundef nonnull align 8 dereferenceable(8) ptr @_ZSt16__ostream_insertIcSt11char_traitsIcEERSt13basic_ostreamIT_T0_ES6_PKS3_l(ptr noundef nonnull align 8 dereferenceable(8) %0, ptr noundef nonnull @.str.5, i64 noundef 17)
  br label %9

9:                                                ; preds = %2, %7, %switch.lookup
  ret ptr %0
}

declare noundef nonnull align 8 dereferenceable(8) ptr @_ZSt16__ostream_insertIcSt11char_traitsIcEERSt13basic_ostreamIT_T0_ES6_PKS3_l(ptr noundef nonnull align 8 dereferenceable(8), ptr noundef, i64 noundef) local_unnamed_addr #1

; Function Attrs: mustprogress nofree nounwind willreturn memory(argmem: read)
declare i64 @strlen(ptr noundef captures(none)) local_unnamed_addr #2


!llvm.module.flags = !{!0, !1, !2, !3}

!0 = !{i32 1, !"wchar_size", i32 4}
!1 = !{i32 8, !"PIC Level", i32 2}
!2 = !{i32 7, !"PIE Level", i32 2}
!3 = !{i32 7, !"uwtable", i32 2}
